target datalayout = "e-m:e-p270:32:32-p271:32:32-p272:64:64-i64:64-i128:128-f80:128-n8:16:32:64-S128"
target triple = "x86_64-pc-linux-gnu"

%"class.casadi::SXElem" = type { ptr }
%"class.casadi::SXNode" = type { ptr, i32, i32 }

@_ZN6casadi13casadi_limitsINS_6SXElemEE3nanE = global %"class.casadi::SXElem" zeroinitializer, align 8

; Function Attrs: mustprogress nounwind uwtable
define void @_ZN6casadi6SXElemC2Ev(ptr noundef nonnull align 8 dereferenceable(8) %0) unnamed_addr #4 align 2 {
  %2 = alloca ptr, align 8
  store ptr %0, ptr %2, align 8
  %3 = load ptr, ptr %2, align 8
  %4 = load ptr, ptr @_ZN6casadi13casadi_limitsINS_6SXElemEE3nanE, align 8
  %5 = getelementptr inbounds %"class.casadi::SXElem", ptr %3, i32 0, i32 0
  store ptr %4, ptr %5, align 8
  %6 = getelementptr inbounds %"class.casadi::SXElem", ptr %3, i32 0, i32 0
  %7 = load ptr, ptr %6, align 8
  %8 = getelementptr inbounds %"class.casadi::SXNode", ptr %7, i32 0, i32 2
  %9 = load i32, ptr %8, align 4
  %10 = add i32 %9, 1
  store i32 %10, ptr %8, align 4
  ret void
}