; Function Attrs: mustprogress nofree norecurse nosync nounwind willreturn memory(readwrite, inaccessiblemem: none) uwtable
define void @_ZN6casadi6SXElemC2Ev(ptr nocapture noundef nonnull writeonly align 8 dereferenceable(8) %0) unnamed_addr #4 align 2 {
  %2 = load ptr, ptr @_ZN6casadi13casadi_limitsINS_6SXElemEE3nanE, align 8
  store ptr %2, ptr %0, align 8
  %3 = getelementptr inbounds i8, ptr %2, i64 12
  %4 = load i32, ptr %3, align 4
  %5 = add i32 %4, 1
  store i32 %5, ptr %3, align 4
  ret void
}